target datalayout = "e-m:e-p270:32:32-p271:32:32-p272:64:64-i64:64-i128:128-f80:128-n8:16:32:64-S128"
target triple = "x86_64-pc-linux-gnu"

%struct.darktable_t = type { %struct.dt_codepath_t, i32, i32, ptr, ptr, ptr, ptr, ptr, ptr, ptr, ptr, ptr, ptr, ptr, ptr, ptr, ptr, ptr, ptr, ptr, ptr, ptr, ptr, ptr, ptr, ptr, ptr, ptr, ptr, ptr, [64 x %struct.dt_pthread_mutex_t], %struct.dt_pthread_mutex_t, %struct.dt_pthread_mutex_t, %struct.dt_pthread_mutex_t, %struct.dt_pthread_mutex_t, %struct.dt_pthread_mutex_t, ptr, ptr, ptr, ptr, ptr, ptr, ptr, ptr, ptr, ptr, ptr, ptr, ptr, %struct.dt_lua_state_t, ptr, double, ptr, i32, [47 x i32], i32, i32, ptr, ptr, %struct.dt_sys_resources_t, %struct.dt_backthumb_t, %struct.dt_gimp_t }
%struct.dt_codepath_t = type { i8, [3 x i8] }
%struct.dt_pthread_mutex_t = type { %union.pthread_mutex_t }
%union.pthread_mutex_t = type { %struct.__pthread_mutex_s }
%struct.__pthread_mutex_s = type { i32, i32, i32, i32, i32, i16, i16, %struct.__pthread_internal_list }
%struct.__pthread_internal_list = type { ptr, ptr }
%struct.dt_lua_state_t = type { i32 }
%struct.dt_sys_resources_t = type { i64, i64, ptr, ptr, i32 }
%struct.dt_backthumb_t = type { double, double, i32, i32, i32, i32 }
%struct.dt_gimp_t = type { i32, ptr, ptr, i32, i32 }

@darktable = external global %struct.darktable_t, align 8
@.str.182 = private unnamed_addr constant [1 x i8] zeroinitializer, align 1

; Function Attrs: nounwind uwtable
define internal void @_panel_toggle(i32 noundef %0, ptr noundef %1) #0 {
  %3 = alloca i32, align 4
  %4 = alloca ptr, align 8
  %5 = alloca i32, align 4
  %6 = alloca i32, align 4
  %7 = alloca i32, align 4
  %8 = alloca i32, align 4
  store i32 %0, ptr %3, align 4, !tbaa !17
  store ptr %1, ptr %4, align 8, !tbaa !76
  %9 = load i32, ptr %3, align 4, !tbaa !17
  switch i32 %9, label %55 [
    i32 2, label %10
    i32 3, label %16
    i32 0, label %22
    i32 1, label %54
  ]

10:                                               ; preds = %2
  %11 = load ptr, ptr %4, align 8, !tbaa !76
  %12 = call i32 @_panel_is_visible(i32 noundef 3)
  %13 = icmp ne i32 %12, 0
  %14 = xor i1 %13, true
  %15 = zext i1 %14 to i32
  call void @dt_ui_panel_show(ptr noundef %11, i32 noundef 3, i32 noundef %15, i32 noundef 1)
  br label %86

16:                                               ; preds = %2
  %17 = load ptr, ptr %4, align 8, !tbaa !76
  %18 = call i32 @_panel_is_visible(i32 noundef 4)
  %19 = icmp ne i32 %18, 0
  %20 = xor i1 %19, true
  %21 = zext i1 %20 to i32
  call void @dt_ui_panel_show(ptr noundef %17, i32 noundef 4, i32 noundef %21, i32 noundef 1)
  br label %86

22:                                               ; preds = %2
  call void @llvm.lifetime.start.p0(i64 4, ptr %5) #15
  %23 = call i32 @_panel_is_visible(i32 noundef 1)
  store i32 %23, ptr %5, align 4, !tbaa !17
  call void @llvm.lifetime.start.p0(i64 4, ptr %6) #15
  %24 = call i32 @_panel_is_visible(i32 noundef 0)
  store i32 %24, ptr %6, align 4, !tbaa !17
  %25 = load i32, ptr %5, align 4, !tbaa !17
  %26 = icmp ne i32 %25, 0
  br i1 %26, label %27, label %32

27:                                               ; preds = %22
  %28 = load i32, ptr %6, align 4, !tbaa !17
  %29 = icmp ne i32 %28, 0
  br i1 %29, label %30, label %32

30:                                               ; preds = %27
  %31 = load ptr, ptr %4, align 8, !tbaa !76
  call void @dt_ui_panel_show(ptr noundef %31, i32 noundef 1, i32 noundef 0, i32 noundef 1)
  br label %52

32:                                               ; preds = %27, %22
  %33 = load i32, ptr %5, align 4, !tbaa !17
  %34 = icmp ne i32 %33, 0
  br i1 %34, label %40, label %35

35:                                               ; preds = %32
  %36 = load i32, ptr %6, align 4, !tbaa !17
  %37 = icmp ne i32 %36, 0
  br i1 %37, label %38, label %40

38:                                               ; preds = %35
  %39 = load ptr, ptr %4, align 8, !tbaa !76
  call void @dt_ui_panel_show(ptr noundef %39, i32 noundef 0, i32 noundef 0, i32 noundef 1)
  br label %51

40:                                               ; preds = %35, %32
  %41 = load i32, ptr %5, align 4, !tbaa !17
  %42 = icmp ne i32 %41, 0
  br i1 %42, label %48, label %43

43:                                               ; preds = %40
  %44 = load i32, ptr %6, align 4, !tbaa !17
  %45 = icmp ne i32 %44, 0
  br i1 %45, label %48, label %46

46:                                               ; preds = %43
  %47 = load ptr, ptr %4, align 8, !tbaa !76
  call void @dt_ui_panel_show(ptr noundef %47, i32 noundef 1, i32 noundef 1, i32 noundef 1)
  br label %50

48:                                               ; preds = %43, %40
  %49 = load ptr, ptr %4, align 8, !tbaa !76
  call void @dt_ui_panel_show(ptr noundef %49, i32 noundef 0, i32 noundef 1, i32 noundef 1)
  br label %50

50:                                               ; preds = %48, %46
  br label %51

51:                                               ; preds = %50, %38
  br label %52

52:                                               ; preds = %51, %30
  %53 = load ptr, ptr getelementptr inbounds nuw (%struct.darktable_t, ptr @darktable, i32 0, i32 12), align 8, !tbaa !130
  call void @dt_control_hinter_message(ptr noundef %53, ptr noundef @.str.182)
  call void @llvm.lifetime.end.p0(i64 4, ptr %6) #15
  call void @llvm.lifetime.end.p0(i64 4, ptr %5) #15
  br label %86

54:                                               ; preds = %2
  br label %55

55:                                               ; preds = %2, %54
  call void @llvm.lifetime.start.p0(i64 4, ptr %7) #15
  %56 = call i32 @_panel_is_visible(i32 noundef 2)
  store i32 %56, ptr %7, align 4, !tbaa !17
  call void @llvm.lifetime.start.p0(i64 4, ptr %8) #15
  %57 = call i32 @_panel_is_visible(i32 noundef 5)
  store i32 %57, ptr %8, align 4, !tbaa !17
  %58 = load i32, ptr %7, align 4, !tbaa !17
  %59 = icmp ne i32 %58, 0
  br i1 %59, label %60, label %65

60:                                               ; preds = %55
  %61 = load i32, ptr %8, align 4, !tbaa !17
  %62 = icmp ne i32 %61, 0
  br i1 %62, label %63, label %65

63:                                               ; preds = %60
  %64 = load ptr, ptr %4, align 8, !tbaa !76
  call void @dt_ui_panel_show(ptr noundef %64, i32 noundef 2, i32 noundef 0, i32 noundef 1)
  br label %85

65:                                               ; preds = %60, %55
  %66 = load i32, ptr %7, align 4, !tbaa !17
  %67 = icmp ne i32 %66, 0
  br i1 %67, label %73, label %68

68:                                               ; preds = %65
  %69 = load i32, ptr %8, align 4, !tbaa !17
  %70 = icmp ne i32 %69, 0
  br i1 %70, label %71, label %73

71:                                               ; preds = %68
  %72 = load ptr, ptr %4, align 8, !tbaa !76
  call void @dt_ui_panel_show(ptr noundef %72, i32 noundef 5, i32 noundef 0, i32 noundef 1)
  br label %84

73:                                               ; preds = %68, %65
  %74 = load i32, ptr %7, align 4, !tbaa !17
  %75 = icmp ne i32 %74, 0
  br i1 %75, label %81, label %76

76:                                               ; preds = %73
  %77 = load i32, ptr %8, align 4, !tbaa !17
  %78 = icmp ne i32 %77, 0
  br i1 %78, label %81, label %79

79:                                               ; preds = %76
  %80 = load ptr, ptr %4, align 8, !tbaa !76
  call void @dt_ui_panel_show(ptr noundef %80, i32 noundef 2, i32 noundef 1, i32 noundef 1)
  br label %83

81:                                               ; preds = %76, %73
  %82 = load ptr, ptr %4, align 8, !tbaa !76
  call void @dt_ui_panel_show(ptr noundef %82, i32 noundef 5, i32 noundef 1, i32 noundef 1)
  br label %83

83:                                               ; preds = %81, %79
  br label %84

84:                                               ; preds = %83, %71
  br label %85

85:                                               ; preds = %84, %63
  call void @llvm.lifetime.end.p0(i64 4, ptr %8) #15
  call void @llvm.lifetime.end.p0(i64 4, ptr %7) #15
  br label %86

86:                                               ; preds = %85, %52, %16, %10
  ret void
}