; Function Attrs: nounwind uwtable
define internal fastcc void @_panel_toggle(i32 noundef %0, ptr noundef readonly captures(none) %1) unnamed_addr #0 {
  switch i32 %0, label %23 [
    i32 2, label %3
    i32 3, label %6
    i32 0, label %9
  ]

3:                                                ; preds = %2
  %4 = tail call fastcc i32 @_panel_is_visible(i32 noundef 3)
  %.not33 = icmp eq i32 %4, 0
  %5 = zext i1 %.not33 to i32
  tail call void @dt_ui_panel_show(ptr noundef %1, i32 noundef 3, i32 noundef %5, i32 noundef 1)
  br label %35

6:                                                ; preds = %2
  %7 = tail call fastcc i32 @_panel_is_visible(i32 noundef 4)
  %.not = icmp eq i32 %7, 0
  %8 = zext i1 %.not to i32
  tail call void @dt_ui_panel_show(ptr noundef %1, i32 noundef 4, i32 noundef %8, i32 noundef 1)
  br label %35

9:                                                ; preds = %2
  %10 = tail call fastcc i32 @_panel_is_visible(i32 noundef 1)
  %11 = tail call fastcc i32 @_panel_is_visible(i32 noundef 0)
  %12 = icmp ne i32 %10, 0
  %13 = icmp ne i32 %11, 0
  %or.cond = select i1 %12, i1 %13, i1 false
  br i1 %or.cond, label %14, label %15

14:                                               ; preds = %9
  tail call void @dt_ui_panel_show(ptr noundef %1, i32 noundef 1, i32 noundef 0, i32 noundef 1)
  br label %21

15:                                               ; preds = %9
  %16 = icmp eq i32 %10, 0
  %or.cond3 = select i1 %16, i1 %13, i1 false
  br i1 %or.cond3, label %17, label %18

17:                                               ; preds = %15
  tail call void @dt_ui_panel_show(ptr noundef %1, i32 noundef 0, i32 noundef 0, i32 noundef 1)
  br label %21

18:                                               ; preds = %15
  %or.cond5 = select i1 %12, i1 true, i1 %13
  br i1 %or.cond5, label %20, label %19

19:                                               ; preds = %18
  tail call void @dt_ui_panel_show(ptr noundef %1, i32 noundef 1, i32 noundef 1, i32 noundef 1)
  br label %21

20:                                               ; preds = %18
  tail call void @dt_ui_panel_show(ptr noundef %1, i32 noundef 0, i32 noundef 1, i32 noundef 1)
  br label %21

21:                                               ; preds = %17, %20, %19, %14
  %22 = load ptr, ptr getelementptr inbounds nuw (i8, ptr @darktable, i64 88), align 8, !tbaa !120
  tail call void @dt_control_hinter_message(ptr noundef %22, ptr noundef nonnull @.str.182) #18
  br label %35

23:                                               ; preds = %2
  %24 = tail call fastcc i32 @_panel_is_visible(i32 noundef 2)
  %25 = tail call fastcc i32 @_panel_is_visible(i32 noundef 5)
  %26 = icmp ne i32 %24, 0
  %27 = icmp ne i32 %25, 0
  %or.cond7 = select i1 %26, i1 %27, i1 false
  br i1 %or.cond7, label %28, label %29

28:                                               ; preds = %23
  tail call void @dt_ui_panel_show(ptr noundef %1, i32 noundef 2, i32 noundef 0, i32 noundef 1)
  br label %35

29:                                               ; preds = %23
  %30 = icmp eq i32 %24, 0
  %or.cond9 = select i1 %30, i1 %27, i1 false
  br i1 %or.cond9, label %31, label %32

31:                                               ; preds = %29
  tail call void @dt_ui_panel_show(ptr noundef %1, i32 noundef 5, i32 noundef 0, i32 noundef 1)
  br label %35

32:                                               ; preds = %29
  %or.cond11 = select i1 %26, i1 true, i1 %27
  br i1 %or.cond11, label %34, label %33

33:                                               ; preds = %32
  tail call void @dt_ui_panel_show(ptr noundef %1, i32 noundef 2, i32 noundef 1, i32 noundef 1)
  br label %35

34:                                               ; preds = %32
  tail call void @dt_ui_panel_show(ptr noundef %1, i32 noundef 5, i32 noundef 1, i32 noundef 1)
  br label %35

35:                                               ; preds = %28, %33, %34, %31, %21, %6, %3
  ret void
}